target datalayout = "e-m:e-p270:32:32-p271:32:32-p272:64:64-i64:64-i128:128-f80:128-n8:16:32:64-S128"
target triple = "x86_64-pc-linux-gnu"

%struct.Trigger = type { i32, ptr, i32, i16, i8, i8, i8, i32, i32, i32, i8, i8, i16, i16, ptr, ptr, ptr, ptr, ptr }
%struct.TriggerDesc = type { ptr, i32, i8, i8, i8, i8, i8, i8, i8, i8, i8, i8, i8, i8, i8, i8, i8, i8, i8, i8, i8, i8, i8 }
%struct.TriggerData = type { i32, i32, ptr, ptr, ptr, ptr, ptr, ptr, ptr, ptr, ptr }
%struct.ResultRelInfo = type { i32, i32, ptr, i32, ptr, ptr, i16, ptr, i8, ptr, ptr, ptr, i8, i8, ptr, ptr, ptr, ptr, ptr, ptr, ptr, ptr, ptr, ptr, i8, i32, i32, i32, ptr, ptr, ptr, ptr, ptr, ptr, ptr, i32, i32, ptr, ptr, ptr, ptr, [3 x ptr], ptr, ptr, ptr, i8, ptr, i8, ptr, ptr, ptr, ptr }
%struct.EState = type { i32, i32, ptr, ptr, ptr, i32, ptr, ptr, ptr, ptr, ptr, ptr, ptr, ptr, ptr, ptr, i32, ptr, ptr, ptr, ptr, ptr, ptr, ptr, ptr, ptr, ptr, i64, i64, i32, i32, i8, ptr, ptr, ptr, ptr, ptr, i8, i32, i32, ptr, i32, ptr, ptr, ptr, ptr }
%struct.ExprContext = type { i32, ptr, ptr, ptr, ptr, ptr, ptr, ptr, ptr, ptr, i64, i8, i64, i8, ptr, ptr, ptr, ptr }

; Function Attrs: nounwind uwtable
define dso_local zeroext i1 @ExecIRDeleteTriggers(ptr noundef %0, ptr noundef %1, ptr noundef %2) #0 {
  %4 = alloca i1, align 1
  %5 = alloca ptr, align 8
  %6 = alloca ptr, align 8
  %7 = alloca ptr, align 8
  %8 = alloca ptr, align 8
  %9 = alloca ptr, align 8
  %10 = alloca %struct.TriggerData, align 8
  %11 = alloca i32, align 4
  %12 = alloca ptr, align 8
  %13 = alloca ptr, align 8
  %14 = alloca i32, align 4
  store ptr %0, ptr %5, align 8
  store ptr %1, ptr %6, align 8
  store ptr %2, ptr %7, align 8
  call void @llvm.lifetime.start.p0(i64 8, ptr %8) #12
  %15 = load ptr, ptr %6, align 8
  %16 = getelementptr inbounds nuw %struct.ResultRelInfo, ptr %15, i32 0, i32 14
  %17 = load ptr, ptr %16, align 8
  store ptr %17, ptr %8, align 8
  call void @llvm.lifetime.start.p0(i64 8, ptr %9) #12
  %18 = load ptr, ptr %5, align 8
  %19 = load ptr, ptr %6, align 8
  %20 = call ptr @ExecGetTriggerOldSlot(ptr noundef %18, ptr noundef %19)
  store ptr %20, ptr %9, align 8
  call void @llvm.lifetime.start.p0(i64 80, ptr %10) #12
  call void @llvm.memset.p0.i64(ptr align 8 %10, i8 0, i64 80, i1 false)
  call void @llvm.lifetime.start.p0(i64 4, ptr %11) #12
  %21 = getelementptr inbounds nuw %struct.TriggerData, ptr %10, i32 0, i32 0
  store i32 441, ptr %21, align 8
  %22 = getelementptr inbounds nuw %struct.TriggerData, ptr %10, i32 0, i32 1
  store i32 21, ptr %22, align 4
  %23 = load ptr, ptr %6, align 8
  %24 = getelementptr inbounds nuw %struct.ResultRelInfo, ptr %23, i32 0, i32 2
  %25 = load ptr, ptr %24, align 8
  %26 = getelementptr inbounds nuw %struct.TriggerData, ptr %10, i32 0, i32 2
  store ptr %25, ptr %26, align 8
  %27 = load ptr, ptr %7, align 8
  %28 = load ptr, ptr %9, align 8
  call void @ExecForceStoreHeapTuple(ptr noundef %27, ptr noundef %28, i1 noundef zeroext false)
  store i32 0, ptr %11, align 4
  br label %29

29:                                               ; preds = %101, %3
  %30 = load i32, ptr %11, align 4
  %31 = load ptr, ptr %8, align 8
  %32 = getelementptr inbounds nuw %struct.TriggerDesc, ptr %31, i32 0, i32 1
  %33 = load i32, ptr %32, align 8
  %34 = icmp slt i32 %30, %33
  br i1 %34, label %35, label %104

35:                                               ; preds = %29
  call void @llvm.lifetime.start.p0(i64 8, ptr %12) #12
  call void @llvm.lifetime.start.p0(i64 8, ptr %13) #12
  %36 = load ptr, ptr %8, align 8
  %37 = getelementptr inbounds nuw %struct.TriggerDesc, ptr %36, i32 0, i32 0
  %38 = load ptr, ptr %37, align 8
  %39 = load i32, ptr %11, align 4
  %40 = sext i32 %39 to i64
  %41 = getelementptr inbounds %struct.Trigger, ptr %38, i64 %40
  store ptr %41, ptr %13, align 8
  %42 = load ptr, ptr %13, align 8
  %43 = getelementptr inbounds nuw %struct.Trigger, ptr %42, i32 0, i32 3
  %44 = load i16, ptr %43, align 4
  %45 = sext i16 %44 to i32
  %46 = and i32 %45, 75
  %47 = icmp eq i32 %46, 73
  br i1 %47, label %49, label %48

48:                                               ; preds = %35
  store i32 4, ptr %14, align 4
  br label %98

49:                                               ; preds = %35
  %50 = load ptr, ptr %5, align 8
  %51 = load ptr, ptr %6, align 8
  %52 = load ptr, ptr %13, align 8
  %53 = getelementptr inbounds nuw %struct.TriggerData, ptr %10, i32 0, i32 1
  %54 = load i32, ptr %53, align 4
  %55 = load ptr, ptr %9, align 8
  %56 = call zeroext i1 @TriggerEnabled(ptr noundef %50, ptr noundef %51, ptr noundef %52, i32 noundef %54, ptr noundef null, ptr noundef %55, ptr noundef null)
  br i1 %56, label %58, label %57

57:                                               ; preds = %49
  store i32 4, ptr %14, align 4
  br label %98

58:                                               ; preds = %49
  %59 = load ptr, ptr %9, align 8
  %60 = getelementptr inbounds nuw %struct.TriggerData, ptr %10, i32 0, i32 6
  store ptr %59, ptr %60, align 8
  %61 = load ptr, ptr %7, align 8
  %62 = getelementptr inbounds nuw %struct.TriggerData, ptr %10, i32 0, i32 3
  store ptr %61, ptr %62, align 8
  %63 = load ptr, ptr %13, align 8
  %64 = getelementptr inbounds nuw %struct.TriggerData, ptr %10, i32 0, i32 5
  store ptr %63, ptr %64, align 8
  %65 = load i32, ptr %11, align 4
  %66 = load ptr, ptr %6, align 8
  %67 = getelementptr inbounds nuw %struct.ResultRelInfo, ptr %66, i32 0, i32 15
  %68 = load ptr, ptr %67, align 8
  %69 = load ptr, ptr %6, align 8
  %70 = getelementptr inbounds nuw %struct.ResultRelInfo, ptr %69, i32 0, i32 17
  %71 = load ptr, ptr %70, align 8
  %72 = load ptr, ptr %5, align 8
  %73 = getelementptr inbounds nuw %struct.EState, ptr %72, i32 0, i32 35
  %74 = load ptr, ptr %73, align 8
  %75 = icmp ne ptr %74, null
  br i1 %75, label %76, label %80

76:                                               ; preds = %58
  %77 = load ptr, ptr %5, align 8
  %78 = getelementptr inbounds nuw %struct.EState, ptr %77, i32 0, i32 35
  %79 = load ptr, ptr %78, align 8
  br label %83

80:                                               ; preds = %58
  %81 = load ptr, ptr %5, align 8
  %82 = call ptr @MakePerTupleExprContext(ptr noundef %81)
  br label %83

83:                                               ; preds = %80, %76
  %84 = phi ptr [ %79, %76 ], [ %82, %80 ]
  %85 = getelementptr inbounds nuw %struct.ExprContext, ptr %84, i32 0, i32 5
  %86 = load ptr, ptr %85, align 8
  %87 = call ptr @ExecCallTriggerFunc(ptr noundef %10, i32 noundef %65, ptr noundef %68, ptr noundef %71, ptr noundef %86)
  store ptr %87, ptr %12, align 8
  %88 = load ptr, ptr %12, align 8
  %89 = icmp eq ptr %88, null
  br i1 %89, label %90, label %91

90:                                               ; preds = %83
  store i1 false, ptr %4, align 1
  store i32 1, ptr %14, align 4
  br label %98

91:                                               ; preds = %83
  %92 = load ptr, ptr %12, align 8
  %93 = load ptr, ptr %7, align 8
  %94 = icmp ne ptr %92, %93
  br i1 %94, label %95, label %97

95:                                               ; preds = %91
  %96 = load ptr, ptr %12, align 8
  call void @heap_freetuple(ptr noundef %96)
  br label %97

97:                                               ; preds = %95, %91
  store i32 0, ptr %14, align 4
  br label %98

98:                                               ; preds = %97, %90, %57, %48
  call void @llvm.lifetime.end.p0(i64 8, ptr %13) #12
  call void @llvm.lifetime.end.p0(i64 8, ptr %12) #12
  %99 = load i32, ptr %14, align 4
  switch i32 %99, label %105 [
    i32 0, label %100
    i32 4, label %101
  ]

100:                                              ; preds = %98
  br label %101

101:                                              ; preds = %100, %98
  %102 = load i32, ptr %11, align 4
  %103 = add i32 %102, 1
  store i32 %103, ptr %11, align 4
  br label %29, !llvm.loop !38

104:                                              ; preds = %29
  store i1 true, ptr %4, align 1
  store i32 1, ptr %14, align 4
  br label %105

105:                                              ; preds = %104, %98
  call void @llvm.lifetime.end.p0(i64 4, ptr %11) #12
  call void @llvm.lifetime.end.p0(i64 80, ptr %10) #12
  call void @llvm.lifetime.end.p0(i64 8, ptr %9) #12
  call void @llvm.lifetime.end.p0(i64 8, ptr %8) #12
  %106 = load i1, ptr %4, align 1
  ret i1 %106
}