; Function Attrs: nounwind uwtable
define dso_local noundef zeroext i1 @ExecIRDeleteTriggers(ptr noundef %0, ptr noundef %1, ptr noundef %2) local_unnamed_addr #0 {
  %4 = alloca %struct.TriggerData, align 8
  %5 = getelementptr inbounds nuw i8, ptr %1, i64 96
  %6 = load ptr, ptr %5, align 8
  %7 = tail call ptr @ExecGetTriggerOldSlot(ptr noundef %0, ptr noundef %1) #16
  call void @llvm.lifetime.start.p0(i64 80, ptr nonnull %4) #16
  %8 = getelementptr inbounds nuw i8, ptr %4, i64 16
  call void @llvm.memset.p0.i64(ptr noundef nonnull align 8 dereferenceable(80) %8, i8 0, i64 64, i1 false)
  store i32 441, ptr %4, align 8
  %9 = getelementptr inbounds nuw i8, ptr %4, i64 4
  store i32 21, ptr %9, align 4
  %10 = getelementptr inbounds nuw i8, ptr %1, i64 8
  %11 = load ptr, ptr %10, align 8
  %12 = getelementptr inbounds nuw i8, ptr %4, i64 8
  store ptr %11, ptr %12, align 8
  tail call void @ExecForceStoreHeapTuple(ptr noundef %2, ptr noundef %7, i1 noundef zeroext false) #16
  %13 = getelementptr inbounds nuw i8, ptr %6, i64 8
  %14 = load i32, ptr %13, align 8
  %15 = icmp slt i32 %14, 1
  br i1 %15, label %._crit_edge, label %.lr.ph

.lr.ph:                                           ; preds = %3
  %16 = getelementptr inbounds nuw i8, ptr %4, i64 40
  %17 = getelementptr inbounds nuw i8, ptr %4, i64 16
  %18 = getelementptr inbounds nuw i8, ptr %4, i64 32
  %19 = getelementptr inbounds nuw i8, ptr %1, i64 104
  %20 = getelementptr inbounds nuw i8, ptr %1, i64 120
  %21 = getelementptr inbounds nuw i8, ptr %0, i64 264
  br label %22

22:                                               ; preds = %.lr.ph, %47
  %indvars.iv = phi i64 [ 0, %.lr.ph ], [ %indvars.iv.next, %47 ]
  %23 = load ptr, ptr %6, align 8
  %24 = getelementptr inbounds nuw %struct.Trigger, ptr %23, i64 %indvars.iv
  %25 = getelementptr inbounds nuw i8, ptr %24, i64 20
  %26 = load i16, ptr %25, align 4
  %27 = and i16 %26, 75
  %28 = icmp eq i16 %27, 73
  br i1 %28, label %29, label %47

29:                                               ; preds = %22
  %30 = load i32, ptr %9, align 4
  %31 = call fastcc zeroext i1 @TriggerEnabled(ptr noundef %0, ptr noundef %1, ptr noundef nonnull %24, i32 noundef %30, ptr noundef null, ptr noundef %7, ptr noundef null)
  br i1 %31, label %32, label %47

32:                                               ; preds = %29
  store ptr %7, ptr %16, align 8
  store ptr %2, ptr %17, align 8
  store ptr %24, ptr %18, align 8
  %33 = load ptr, ptr %19, align 8
  %34 = load ptr, ptr %20, align 8
  %35 = load ptr, ptr %21, align 8
  %.not = icmp eq ptr %35, null
  br i1 %.not, label %36, label %38

36:                                               ; preds = %32
  %37 = call ptr @MakePerTupleExprContext(ptr noundef nonnull %0) #16
  br label %38

38:                                               ; preds = %32, %36
  %39 = phi ptr [ %37, %36 ], [ %35, %32 ]
  %40 = getelementptr inbounds nuw i8, ptr %39, i64 40
  %41 = load ptr, ptr %40, align 8
  %42 = trunc nuw nsw i64 %indvars.iv to i32
  %43 = call fastcc ptr @ExecCallTriggerFunc(ptr noundef %4, i32 noundef %42, ptr noundef %33, ptr noundef %34, ptr noundef %41)
  %44 = icmp eq ptr %43, null
  br i1 %44, label %._crit_edge, label %45

45:                                               ; preds = %38
  %.not34 = icmp eq ptr %43, %2
  br i1 %.not34, label %47, label %46

46:                                               ; preds = %45
  call void @heap_freetuple(ptr noundef nonnull %43) #16
  br label %47

47:                                               ; preds = %22, %29, %46, %45
  %indvars.iv.next = add nuw nsw i64 %indvars.iv, 1
  %48 = load i32, ptr %13, align 8
  %49 = sext i32 %48 to i64
  %.not39 = icmp slt i64 %indvars.iv.next, %49
  br i1 %.not39, label %22, label %._crit_edge, !llvm.loop !37

._crit_edge:                                      ; preds = %47, %38, %3
  %.lcssa = phi i1 [ true, %3 ], [ false, %38 ], [ true, %47 ]
  call void @llvm.lifetime.end.p0(i64 80, ptr nonnull %4) #16
  ret i1 %.lcssa
}